; Function Attrs: nounwind uwtable
define hidden i32 @ir_proto_1(ptr noundef %0, i8 noundef zeroext %1, i32 noundef %2, i32 noundef %3) local_unnamed_addr #0 {
  %5 = alloca %struct._ir_proto_t, align 1
  store i8 %1, ptr %5, align 1
  %6 = trunc i32 %2 to i8
  %7 = getelementptr inbounds i8, ptr %5, i64 1
  store i8 %6, ptr %7, align 1
  %8 = getelementptr inbounds i8, ptr %5, i64 2
  store i8 1, ptr %8, align 1
  %9 = trunc i32 %3 to i8
  %10 = getelementptr inbounds i8, ptr %5, i64 3
  store i8 %9, ptr %10, align 1
  %11 = getelementptr inbounds i8, ptr %0, i64 336
  %12 = load ptr, ptr %11, align 8
  %.not.i = icmp eq ptr %12, null
  br i1 %.not.i, label %13, label %ir_strl.exit

13:                                               ; preds = %4
  tail call void @ir_strtab_init(ptr noundef nonnull %11, i32 noundef 64, i32 noundef 4096) #20
  br label %ir_strl.exit

ir_strl.exit:                                     ; preds = %4, %13
  %14 = getelementptr inbounds i8, ptr %0, i64 352
  %15 = load i32, ptr %14, align 8
  %16 = add i32 %15, 1
  %17 = call i32 @ir_strtab_lookup(ptr noundef nonnull %11, ptr noundef nonnull %5, i32 noundef 4, i32 noundef %16) #20
  ret i32 %17
}